; Function Attrs: mustprogress nounwind uwtable
define hidden void @_ZN6google8protobuf12FieldOptionsD2Ev(ptr noundef nonnull align 8 dereferenceable(88) %0) unnamed_addr #6 align 2 personality ptr @__gxx_personality_v0 {
  %2 = getelementptr inbounds nuw i8, ptr %0, i64 8
  %3 = load i64, ptr %2, align 8, !tbaa !8
  %4 = and i64 %3, 1
  %.not.i = icmp eq i64 %4, 0
  br i1 %.not.i, label %_ZN6google8protobuf8internal16InternalMetadata6DeleteINS0_15UnknownFieldSetEEEvv.exit, label %_ZNK6google8protobuf11MessageLite21GetArenaForAllocationEv.exit.thread, !prof !19

_ZNK6google8protobuf11MessageLite21GetArenaForAllocationEv.exit.thread: ; preds = %1
  %5 = and i64 %3, -4
  %6 = inttoptr i64 %5 to ptr
  %7 = load ptr, ptr %6, align 8, !tbaa !20
  %.not4 = icmp eq ptr %7, null
  br i1 %.not4, label %8, label %_ZN6google8protobuf8internal16InternalMetadata6DeleteINS0_15UnknownFieldSetEEEvv.exit

8:                                                ; preds = %_ZNK6google8protobuf11MessageLite21GetArenaForAllocationEv.exit.thread
  invoke void @_ZN6google8protobuf8internal16InternalMetadata21DeleteOutOfLineHelperINS0_15UnknownFieldSetEEEvv(ptr noundef nonnull align 8 dereferenceable(8) %2)
          to label %_ZN6google8protobuf8internal16InternalMetadata6DeleteINS0_15UnknownFieldSetEEEvv.exit unwind label %30

_ZN6google8protobuf8internal16InternalMetadata6DeleteINS0_15UnknownFieldSetEEEvv.exit: ; preds = %1, %8, %_ZNK6google8protobuf11MessageLite21GetArenaForAllocationEv.exit.thread
  %9 = getelementptr inbounds nuw i8, ptr %0, i64 48
  %10 = getelementptr inbounds nuw i8, ptr %0, i64 64
  %11 = load ptr, ptr %10, align 8, !tbaa !18
  %.not.i.i = icmp ne ptr %11, null
  %12 = load ptr, ptr %9, align 8
  %13 = icmp eq ptr %12, null
  %14 = select i1 %.not.i.i, i1 %13, i1 false
  br i1 %14, label %15, label %_ZN6google8protobuf16RepeatedPtrFieldINS0_19UninterpretedOptionEED2Ev.exit

15:                                               ; preds = %_ZN6google8protobuf8internal16InternalMetadata6DeleteINS0_15UnknownFieldSetEEEvv.exit
  invoke void @_ZN6google8protobuf8internal20RepeatedPtrFieldBase13DestroyProtosEv(ptr noundef nonnull align 8 dereferenceable(24) %9)
          to label %_ZN6google8protobuf16RepeatedPtrFieldINS0_19UninterpretedOptionEED2Ev.exit unwind label %16

16:                                               ; preds = %15
  %17 = landingpad { ptr, i32 }
          catch ptr null
  %18 = extractvalue { ptr, i32 } %17, 0
  tail call void @__clang_call_terminate(ptr %18) #23
  unreachable

_ZN6google8protobuf16RepeatedPtrFieldINS0_19UninterpretedOptionEED2Ev.exit: ; preds = %_ZN6google8protobuf8internal16InternalMetadata6DeleteINS0_15UnknownFieldSetEEEvv.exit, %15
  %19 = getelementptr inbounds nuw i8, ptr %0, i64 16
  tail call void @_ZN6google8protobuf8internal12ExtensionSetD1Ev(ptr noundef nonnull align 8 dereferenceable(24) %19) #24
  store ptr getelementptr inbounds nuw inrange(-16, 104) (i8, ptr @_ZTVN6google8protobuf11MessageLiteE, i64 16), ptr %0, align 8, !tbaa !11
  %20 = load i64, ptr %2, align 8, !tbaa !8
  %21 = and i64 %20, 2
  %.not.i.i2 = icmp eq i64 %21, 0
  br i1 %.not.i.i2, label %_ZN6google8protobuf11MessageLiteD2Ev.exit, label %22

22:                                               ; preds = %_ZN6google8protobuf16RepeatedPtrFieldINS0_19UninterpretedOptionEED2Ev.exit
  %23 = and i64 %20, 1
  %.not1.i.i = icmp eq i64 %23, 0
  %24 = and i64 %20, -4
  %25 = inttoptr i64 %24 to ptr
  br i1 %.not1.i.i, label %_ZNK6google8protobuf8internal16InternalMetadata5arenaEv.exit.i.i, label %26, !prof !19

26:                                               ; preds = %22
  %27 = load ptr, ptr %25, align 8, !tbaa !20
  br label %_ZNK6google8protobuf8internal16InternalMetadata5arenaEv.exit.i.i

_ZNK6google8protobuf8internal16InternalMetadata5arenaEv.exit.i.i: ; preds = %26, %22
  %.0.i.i.i = phi ptr [ %27, %26 ], [ %25, %22 ]
  %28 = icmp eq ptr %.0.i.i.i, null
  br i1 %28, label %_ZN6google8protobuf11MessageLiteD2Ev.exit, label %29

29:                                               ; preds = %_ZNK6google8protobuf8internal16InternalMetadata5arenaEv.exit.i.i
  tail call void @_ZN6google8protobuf8internal15ThreadSafeArenaD1Ev(ptr noundef nonnull align 8 dereferenceable(32) %.0.i.i.i) #24
  tail call void @_ZdlPv(ptr noundef nonnull %.0.i.i.i) #25
  br label %_ZN6google8protobuf11MessageLiteD2Ev.exit

_ZN6google8protobuf11MessageLiteD2Ev.exit:        ; preds = %_ZN6google8protobuf16RepeatedPtrFieldINS0_19UninterpretedOptionEED2Ev.exit, %_ZNK6google8protobuf8internal16InternalMetadata5arenaEv.exit.i.i, %29
  ret void

30:                                               ; preds = %8
  %31 = landingpad { ptr, i32 }
          catch ptr null
  %32 = extractvalue { ptr, i32 } %31, 0
  tail call void @__clang_call_terminate(ptr %32) #23
  unreachable
}